target datalayout = "e-m:e-p270:32:32-p271:32:32-p272:64:64-i64:64-i128:128-f80:128-n8:16:32:64-S128"
target triple = "x86_64-pc-linux-gnu"

%struct.mac_lte_info = type { i8, i8, i8, i16, i16, i16, i16, i8, i8, i16, i8, i16, i8, i8, i8, i8, i8, i8, i32, i32, i32, i32, i32, i8, %union.anon, i32, i8, i8, i16, [20 x i16], [20 x i16] }
%union.anon = type { %struct.mac_lte_dl_phy_info }
%struct.mac_lte_dl_phy_info = type { i8, i8, i8, i8, i8, i8, i8, i8, i8, i8 }

@proto_mac_lte = hidden global i32 0, align 4
@.str.808 = private unnamed_addr constant [8 x i8] c"mac-lte\00", align 1

; Function Attrs: null_pointer_is_valid sspstrong uwtable
define internal zeroext i1 @dissect_mac_lte_heur(ptr noundef %0, ptr noundef %1, ptr noundef %2, ptr noundef %3) #0 {
  %5 = alloca i1, align 1
  %6 = alloca ptr, align 8
  %7 = alloca ptr, align 8
  %8 = alloca ptr, align 8
  %9 = alloca ptr, align 8
  %10 = alloca i32, align 4
  %11 = alloca ptr, align 8
  %12 = alloca ptr, align 8
  %13 = alloca i32, align 4
  store ptr %0, ptr %6, align 8
  store ptr %1, ptr %7, align 8
  store ptr %2, ptr %8, align 8
  store ptr %3, ptr %9, align 8
  call void @llvm.lifetime.start.p0(i64 4, ptr %10) #16
  store i32 0, ptr %10, align 4
  call void @llvm.lifetime.start.p0(i64 8, ptr %11) #16
  call void @llvm.lifetime.start.p0(i64 8, ptr %12) #16
  %14 = load ptr, ptr %6, align 8
  %15 = load i32, ptr %10, align 4
  %16 = call i32 @tvb_captured_length_remaining(ptr noundef %14, i32 noundef %15)
  %17 = icmp slt i32 %16, 12
  br i1 %17, label %18, label %19

18:                                               ; preds = %4
  store i1 false, ptr %5, align 1
  store i32 1, ptr %13, align 4
  br label %64

19:                                               ; preds = %4
  %20 = load ptr, ptr %6, align 8
  %21 = load i32, ptr %10, align 4
  %22 = call i32 @tvb_strneql(ptr noundef %20, i32 noundef %21, ptr noundef @.str.808, i64 noundef 7)
  %23 = icmp ne i32 %22, 0
  br i1 %23, label %24, label %25

24:                                               ; preds = %19
  store i1 false, ptr %5, align 1
  store i32 1, ptr %13, align 4
  br label %64

25:                                               ; preds = %19
  %26 = load i32, ptr %10, align 4
  %27 = add i32 %26, 7
  store i32 %27, ptr %10, align 4
  %28 = call ptr @wmem_file_scope()
  %29 = load ptr, ptr %7, align 8
  %30 = load i32, ptr @proto_mac_lte, align 4
  %31 = call ptr @p_get_proto_data(ptr noundef %28, ptr noundef %29, i32 noundef %30, i32 noundef 0)
  store ptr %31, ptr %11, align 8
  %32 = load ptr, ptr %11, align 8
  %33 = icmp eq ptr %32, null
  br i1 %33, label %34, label %48

34:                                               ; preds = %25
  %35 = call ptr @wmem_file_scope()
  %36 = call noalias ptr @wmem_alloc0(ptr noundef %35, i64 noundef 148) #17
  store ptr %36, ptr %11, align 8
  %37 = load ptr, ptr %11, align 8
  %38 = load ptr, ptr %6, align 8
  %39 = load ptr, ptr %7, align 8
  %40 = load ptr, ptr %8, align 8
  %41 = call zeroext i1 @dissect_mac_lte_context_fields(ptr noundef %37, ptr noundef %38, ptr noundef %39, ptr noundef %40, ptr noundef %10)
  br i1 %41, label %43, label %42

42:                                               ; preds = %34
  store i1 true, ptr %5, align 1
  store i32 1, ptr %13, align 4
  br label %64

43:                                               ; preds = %34
  %44 = call ptr @wmem_file_scope()
  %45 = load ptr, ptr %7, align 8
  %46 = load i32, ptr @proto_mac_lte, align 4
  %47 = load ptr, ptr %11, align 8
  call void @p_add_proto_data(ptr noundef %44, ptr noundef %45, i32 noundef %46, i32 noundef 0, ptr noundef %47)
  br label %56

48:                                               ; preds = %25
  %49 = load ptr, ptr %6, align 8
  %50 = call i32 @tvb_reported_length(ptr noundef %49)
  %51 = load ptr, ptr %11, align 8
  %52 = getelementptr inbounds nuw %struct.mac_lte_info, ptr %51, i32 0, i32 11
  %53 = load i16, ptr %52, align 2
  %54 = zext i16 %53 to i32
  %55 = sub i32 %50, %54
  store i32 %55, ptr %10, align 4
  br label %56

56:                                               ; preds = %48, %43
  %57 = load ptr, ptr %6, align 8
  %58 = load i32, ptr %10, align 4
  %59 = call ptr @tvb_new_subset_remaining(ptr noundef %57, i32 noundef %58)
  store ptr %59, ptr %12, align 8
  %60 = load ptr, ptr %12, align 8
  %61 = load ptr, ptr %7, align 8
  %62 = load ptr, ptr %8, align 8
  %63 = call i32 @dissect_mac_lte(ptr noundef %60, ptr noundef %61, ptr noundef %62, ptr noundef null)
  store i1 true, ptr %5, align 1
  store i32 1, ptr %13, align 4
  br label %64

64:                                               ; preds = %56, %42, %24, %18
  call void @llvm.lifetime.end.p0(i64 8, ptr %12) #16
  call void @llvm.lifetime.end.p0(i64 8, ptr %11) #16
  call void @llvm.lifetime.end.p0(i64 4, ptr %10) #16
  %65 = load i1, ptr %5, align 1
  ret i1 %65
}