; Function Attrs: null_pointer_is_valid sspstrong uwtable
define internal noundef zeroext i1 @dissect_mac_lte_heur(ptr noundef %0, ptr noundef %1, ptr noundef %2, ptr readnone captures(none) %3) #0 {
  %5 = alloca i32, align 4
  call void @llvm.lifetime.start.p0(i64 4, ptr nonnull %5) #19
  %6 = tail call i32 @tvb_captured_length_remaining(ptr noundef %0, i32 noundef 0)
  %7 = icmp slt i32 %6, 12
  br i1 %7, label %32, label %8

8:                                                ; preds = %4
  %9 = tail call i32 @tvb_strneql(ptr noundef %0, i32 noundef 0, ptr noundef nonnull @.str.808, i64 noundef 7)
  %.not = icmp eq i32 %9, 0
  br i1 %.not, label %10, label %32

10:                                               ; preds = %8
  store i32 7, ptr %5, align 4
  %11 = tail call ptr @wmem_file_scope()
  %12 = load i32, ptr @proto_mac_lte, align 4
  %13 = tail call ptr @p_get_proto_data(ptr noundef %11, ptr noundef %1, i32 noundef %12, i32 noundef 0)
  %14 = icmp eq ptr %13, null
  br i1 %14, label %15, label %22

15:                                               ; preds = %10
  %16 = tail call ptr @wmem_file_scope()
  %17 = tail call noalias dereferenceable_or_null(148) ptr @wmem_alloc0(ptr noundef %16, i64 noundef 148) #17
  %18 = call zeroext i1 @dissect_mac_lte_context_fields(ptr noundef %17, ptr noundef %0, ptr noundef %1, ptr noundef %2, ptr noundef nonnull %5)
  br i1 %18, label %19, label %32

19:                                               ; preds = %15
  %20 = tail call ptr @wmem_file_scope()
  %21 = load i32, ptr @proto_mac_lte, align 4
  tail call void @p_add_proto_data(ptr noundef %20, ptr noundef %1, i32 noundef %21, i32 noundef 0, ptr noundef %17)
  %.pre = load i32, ptr %5, align 4
  br label %28

22:                                               ; preds = %10
  %23 = tail call i32 @tvb_reported_length(ptr noundef %0)
  %24 = getelementptr inbounds nuw i8, ptr %13, i64 18
  %25 = load i16, ptr %24, align 2
  %26 = zext i16 %25 to i32
  %27 = sub i32 %23, %26
  br label %28

28:                                               ; preds = %22, %19
  %29 = phi i32 [ %27, %22 ], [ %.pre, %19 ]
  %30 = tail call ptr @tvb_new_subset_remaining(ptr noundef %0, i32 noundef %29)
  %31 = tail call i32 @dissect_mac_lte(ptr noundef %30, ptr noundef %1, ptr noundef %2, ptr noundef null)
  br label %32

32:                                               ; preds = %15, %8, %4, %28
  %.0 = phi i1 [ true, %28 ], [ false, %4 ], [ false, %8 ], [ true, %15 ]
  call void @llvm.lifetime.end.p0(i64 4, ptr nonnull %5) #19
  ret i1 %.0
}